; Function Attrs: nofree nosync nounwind memory(readwrite, inaccessiblemem: none) uwtable
define void @Rwr_Trav_rec(ptr noundef readonly captures(none) %0, ptr noundef captures(none) %1, ptr noundef captures(none) %2) local_unnamed_addr #3 {
  %4 = getelementptr inbounds nuw i8, ptr %1, i64 14
  %5 = load i32, ptr %4, align 2
  %6 = and i32 %5, 1073741824
  %.not17 = icmp eq i32 %6, 0
  br i1 %.not17, label %.lr.ph, label %tailrecurse._crit_edge

.lr.ph:                                           ; preds = %3
  %7 = getelementptr inbounds nuw i8, ptr %0, i64 96
  br label %8

8:                                                ; preds = %.lr.ph, %tailrecurse
  %9 = phi ptr [ %4, %.lr.ph ], [ %30, %tailrecurse ]
  %.tr1518 = phi ptr [ %1, %.lr.ph ], [ %29, %tailrecurse ]
  %10 = getelementptr inbounds nuw i8, ptr %.tr1518, i64 4
  %11 = load i32, ptr %10, align 4, !tbaa !28
  %12 = load i32, ptr %7, align 8, !tbaa !27
  %13 = icmp eq i32 %11, %12
  br i1 %13, label %tailrecurse._crit_edge, label %14

14:                                               ; preds = %8
  store i32 %12, ptr %10, align 4, !tbaa !28
  %15 = load i32, ptr %2, align 4, !tbaa !26
  %16 = add nsw i32 %15, 1
  store i32 %16, ptr %2, align 4, !tbaa !26
  %17 = load i32, ptr %9, align 2
  %.not14 = icmp sgt i32 %17, -1
  br i1 %.not14, label %tailrecurse, label %18

18:                                               ; preds = %14
  %19 = add nsw i32 %15, 2
  store i32 %19, ptr %2, align 4, !tbaa !26
  br label %tailrecurse

tailrecurse:                                      ; preds = %18, %14
  %20 = getelementptr inbounds nuw i8, ptr %.tr1518, i64 24
  %21 = load ptr, ptr %20, align 8, !tbaa !46
  %22 = ptrtoint ptr %21 to i64
  %23 = and i64 %22, -2
  %24 = inttoptr i64 %23 to ptr
  tail call void @Rwr_Trav_rec(ptr noundef nonnull %0, ptr noundef %24, ptr noundef nonnull %2)
  %25 = getelementptr inbounds nuw i8, ptr %.tr1518, i64 32
  %26 = load ptr, ptr %25, align 8, !tbaa !47
  %27 = ptrtoint ptr %26 to i64
  %28 = and i64 %27, -2
  %29 = inttoptr i64 %28 to ptr
  %30 = getelementptr inbounds nuw i8, ptr %29, i64 14
  %31 = load i32, ptr %30, align 2
  %32 = and i32 %31, 1073741824
  %.not = icmp eq i32 %32, 0
  br i1 %.not, label %8, label %tailrecurse._crit_edge

tailrecurse._crit_edge:                           ; preds = %8, %tailrecurse, %3
  ret void
}